; Function Attrs: nofree nounwind uwtable
define internal noundef i32 @H5HF__huge_bt2_filt_dir_debug(ptr noundef captures(none) %0, i32 noundef %1, i32 noundef %2, ptr noundef readonly captures(none) %3, ptr readnone captures(none) %4) #2 {
  %6 = load i8, ptr @H5HF_init_g, align 1, !tbaa !3, !range !7, !noundef !8
  %7 = trunc nuw i8 %6 to i1
  %8 = load i8, ptr @H5_libterm_g, align 1, !range !7
  %9 = trunc nuw i8 %8 to i1
  %10 = xor i1 %9, true
  %11 = select i1 %7, i1 true, i1 %10
  br i1 %11, label %12, label %21, !prof !9

12:                                               ; preds = %5
  %13 = load i64, ptr %3, align 8, !tbaa !51
  %14 = getelementptr inbounds nuw i8, ptr %3, i64 8
  %15 = load i64, ptr %14, align 8, !tbaa !53
  %16 = getelementptr inbounds nuw i8, ptr %3, i64 16
  %17 = load i32, ptr %16, align 8, !tbaa !55
  %18 = getelementptr inbounds nuw i8, ptr %3, i64 24
  %19 = load i64, ptr %18, align 8, !tbaa !56
  %20 = tail call i32 (ptr, ptr, ...) @fprintf(ptr noundef %0, ptr noundef nonnull @.str.14, i32 noundef %1, ptr noundef nonnull @.str.10, i32 noundef %2, ptr noundef nonnull @.str.11, i64 noundef %13, i64 noundef %15, i32 noundef %17, i64 noundef %19) #6
  br label %21

21:                                               ; preds = %12, %5
  ret i32 0
}